target datalayout = "e-m:e-p270:32:32-p271:32:32-p272:64:64-i64:64-i128:128-f80:128-n8:16:32:64-S128"
target triple = "x86_64-pc-linux-gnu"

%struct.blf_data = type { i64, i64, i64, ptr, ptr, ptr, i32 }
%struct.blf_params = type { ptr, ptr, ptr, i8, i8, ptr }

@.str.93 = private unnamed_addr constant [10 x i8] c"STATUS-%s\00", align 1

; Function Attrs: nounwind null_pointer_is_valid sspstrong uwtable
define internal i64 @blf_calc_key_value(i32 noundef %0, i16 noundef zeroext %1, i16 noundef zeroext %2) #0 {
  %4 = alloca i32, align 4
  %5 = alloca i16, align 2
  %6 = alloca i16, align 2
  store i32 %0, ptr %4, align 4
  store i16 %1, ptr %5, align 2
  store i16 %2, ptr %6, align 2
  %7 = load i32, ptr %4, align 4
  %8 = sext i32 %7 to i64
  %9 = shl i64 %8, 32
  %10 = load i16, ptr %6, align 2
  %11 = zext i16 %10 to i64
  %12 = shl i64 %11, 16
  %13 = or i64 %9, %12
  %14 = load i16, ptr %5, align 2
  %15 = zext i16 %14 to i64
  %16 = or i64 %13, %15
  ret i64 %16
}

; Function Attrs: null_pointer_is_valid sspstrong uwtable
define internal zeroext i1 @blf_prepare_interface_name(ptr noundef %0, i32 noundef %1, i16 noundef zeroext %2, i16 noundef zeroext %3, ptr noundef %4, i1 noundef zeroext %5) #2 {
  %7 = alloca i1, align 1
  %8 = alloca ptr, align 8
  %9 = alloca i32, align 4
  %10 = alloca i16, align 2
  %11 = alloca i16, align 2
  %12 = alloca ptr, align 8
  %13 = alloca i8, align 1
  %14 = alloca i64, align 8
  %15 = alloca ptr, align 8
  %16 = alloca ptr, align 8
  %17 = alloca ptr, align 8
  %18 = alloca ptr, align 8
  %19 = alloca i8, align 1
  %20 = alloca i32, align 4
  %21 = alloca i64, align 8
  %22 = alloca i64, align 8
  %23 = alloca ptr, align 8
  %24 = alloca ptr, align 8
  store ptr %0, ptr %8, align 8
  store i32 %1, ptr %9, align 4
  store i16 %2, ptr %10, align 2
  store i16 %3, ptr %11, align 2
  store ptr %4, ptr %12, align 8
  %25 = zext i1 %5 to i8
  store i8 %25, ptr %13, align 1
  call void @llvm.lifetime.start.p0(i64 8, ptr %14) #13
  %26 = load i32, ptr %9, align 4
  %27 = load i16, ptr %10, align 2
  %28 = load i16, ptr %11, align 2
  %29 = call i64 @blf_calc_key_value(i32 noundef %26, i16 noundef zeroext %27, i16 noundef zeroext %28)
  store i64 %29, ptr %14, align 8
  call void @llvm.lifetime.start.p0(i64 8, ptr %15) #13
  call void @llvm.lifetime.start.p0(i64 8, ptr %16) #13
  call void @llvm.lifetime.start.p0(i64 8, ptr %17) #13
  call void @llvm.lifetime.start.p0(i64 8, ptr %18) #13
  call void @llvm.lifetime.start.p0(i64 1, ptr %19) #13
  %30 = load ptr, ptr %8, align 8
  %31 = getelementptr inbounds nuw %struct.blf_params, ptr %30, i32 0, i32 5
  %32 = load ptr, ptr %31, align 8
  %33 = getelementptr inbounds nuw %struct.blf_data, ptr %32, i32 0, i32 5
  %34 = load ptr, ptr %33, align 8
  %35 = icmp eq ptr %34, null
  br i1 %35, label %36, label %37

36:                                               ; preds = %6
  store i1 false, ptr %7, align 1
  store i32 1, ptr %20, align 4
  br label %142

37:                                               ; preds = %6
  %38 = load ptr, ptr %8, align 8
  %39 = getelementptr inbounds nuw %struct.blf_params, ptr %38, i32 0, i32 5
  %40 = load ptr, ptr %39, align 8
  %41 = getelementptr inbounds nuw %struct.blf_data, ptr %40, i32 0, i32 5
  %42 = load ptr, ptr %41, align 8
  %43 = call ptr @g_hash_table_lookup(ptr noundef %42, ptr noundef %14)
  store ptr %43, ptr %15, align 8
  %44 = load ptr, ptr %15, align 8
  %45 = icmp ne ptr %44, null
  br i1 %45, label %46, label %59

46:                                               ; preds = %37
  %47 = load i8, ptr %13, align 1, !range !8, !noundef !9
  %48 = trunc i8 %47 to i1
  br i1 %48, label %49, label %59

49:                                               ; preds = %46
  %50 = load ptr, ptr %8, align 8
  %51 = getelementptr inbounds nuw %struct.blf_params, ptr %50, i32 0, i32 5
  %52 = load ptr, ptr %51, align 8
  %53 = getelementptr inbounds nuw %struct.blf_data, ptr %52, i32 0, i32 5
  %54 = load ptr, ptr %53, align 8
  %55 = call i32 @g_hash_table_remove(ptr noundef %54, ptr noundef %14)
  %56 = icmp ne i32 %55, 0
  br i1 %56, label %58, label %57

57:                                               ; preds = %49
  store i1 false, ptr %7, align 1
  store i32 1, ptr %20, align 4
  br label %142

58:                                               ; preds = %49
  store ptr null, ptr %15, align 8
  br label %59

59:                                               ; preds = %58, %46, %37
  %60 = load ptr, ptr %15, align 8
  %61 = icmp eq ptr %60, null
  br i1 %61, label %62, label %110

62:                                               ; preds = %59
  %63 = load ptr, ptr %12, align 8
  %64 = icmp ne ptr %63, null
  br i1 %64, label %65, label %110

65:                                               ; preds = %62
  call void @llvm.lifetime.start.p0(i64 8, ptr %21) #13
  store i64 1, ptr %21, align 8
  call void @llvm.lifetime.start.p0(i64 8, ptr %22) #13
  store i64 8, ptr %22, align 8
  call void @llvm.lifetime.start.p0(i64 8, ptr %23) #13
  %66 = load i64, ptr %22, align 8
  %67 = icmp eq i64 %66, 1
  br i1 %67, label %68, label %71

68:                                               ; preds = %65
  %69 = load i64, ptr %21, align 8
  %70 = call noalias ptr @g_malloc(i64 noundef %69) #14
  store ptr %70, ptr %23, align 8
  br label %92

71:                                               ; preds = %65
  %72 = load i64, ptr %21, align 8
  %73 = call i1 @llvm.is.constant.i64(i64 %72)
  br i1 %73, label %74, label %87

74:                                               ; preds = %71
  %75 = load i64, ptr %22, align 8
  %76 = icmp eq i64 %75, 0
  br i1 %76, label %82, label %77

77:                                               ; preds = %74
  %78 = load i64, ptr %21, align 8
  %79 = load i64, ptr %22, align 8
  %80 = udiv i64 -1, %79
  %81 = icmp ule i64 %78, %80
  br i1 %81, label %82, label %87

82:                                               ; preds = %77, %74
  %83 = load i64, ptr %21, align 8
  %84 = load i64, ptr %22, align 8
  %85 = mul i64 %83, %84
  %86 = call noalias ptr @g_malloc(i64 noundef %85) #14
  store ptr %86, ptr %23, align 8
  br label %91

87:                                               ; preds = %77, %71
  %88 = load i64, ptr %21, align 8
  %89 = load i64, ptr %22, align 8
  %90 = call noalias ptr @g_malloc_n(i64 noundef %88, i64 noundef %89) #16
  store ptr %90, ptr %23, align 8
  br label %91

91:                                               ; preds = %87, %82
  br label %92

92:                                               ; preds = %91, %68
  %93 = load ptr, ptr %23, align 8
  store ptr %93, ptr %24, align 8
  call void @llvm.lifetime.end.p0(i64 8, ptr %23) #13
  call void @llvm.lifetime.end.p0(i64 8, ptr %22) #13
  call void @llvm.lifetime.end.p0(i64 8, ptr %21) #13
  %94 = load ptr, ptr %24, align 8
  store ptr %94, ptr %18, align 8
  %95 = load i64, ptr %14, align 8
  %96 = load ptr, ptr %18, align 8
  store i64 %95, ptr %96, align 8
  %97 = load ptr, ptr %12, align 8
  %98 = call noalias ptr @wmem_strdup(ptr noundef null, ptr noundef %97)
  store ptr %98, ptr %16, align 8
  %99 = load ptr, ptr %8, align 8
  %100 = getelementptr inbounds nuw %struct.blf_params, ptr %99, i32 0, i32 5
  %101 = load ptr, ptr %100, align 8
  %102 = getelementptr inbounds nuw %struct.blf_data, ptr %101, i32 0, i32 5
  %103 = load ptr, ptr %102, align 8
  %104 = load ptr, ptr %18, align 8
  %105 = load ptr, ptr %16, align 8
  %106 = call i32 @g_hash_table_insert(ptr noundef %103, ptr noundef %104, ptr noundef %105)
  %107 = icmp ne i32 %106, 0
  br i1 %107, label %109, label %108

108:                                              ; preds = %92
  store i1 false, ptr %7, align 1
  store i32 1, ptr %20, align 4
  br label %142

109:                                              ; preds = %92
  br label %112

110:                                              ; preds = %62, %59
  %111 = load ptr, ptr %15, align 8
  store ptr %111, ptr %16, align 8
  br label %112

112:                                              ; preds = %110, %109
  %113 = load i32, ptr %9, align 4
  %114 = icmp eq i32 %113, 1
  br i1 %114, label %115, label %141

115:                                              ; preds = %112
  %116 = load ptr, ptr %16, align 8
  %117 = icmp ne ptr %116, null
  br i1 %117, label %118, label %121

118:                                              ; preds = %115
  %119 = load ptr, ptr %16, align 8
  %120 = call noalias ptr (ptr, ptr, ...) @wmem_strdup_printf(ptr noundef null, ptr noundef @.str.93, ptr noundef %119)
  br label %122

121:                                              ; preds = %115
  br label %122

122:                                              ; preds = %121, %118
  %123 = phi ptr [ %120, %118 ], [ null, %121 ]
  store ptr %123, ptr %17, align 8
  %124 = load ptr, ptr %8, align 8
  %125 = load i16, ptr %10, align 2
  %126 = load i16, ptr %11, align 2
  %127 = load ptr, ptr %17, align 8
  %128 = load i8, ptr %13, align 1, !range !8, !noundef !9
  %129 = trunc i8 %128 to i1
  %130 = call zeroext i1 @blf_prepare_interface_name(ptr noundef %124, i32 noundef 155, i16 noundef zeroext %125, i16 noundef zeroext %126, ptr noundef %127, i1 noundef zeroext %129)
  %131 = zext i1 %130 to i8
  store i8 %131, ptr %19, align 1
  %132 = load ptr, ptr %17, align 8
  %133 = icmp ne ptr %132, null
  br i1 %133, label %134, label %136

134:                                              ; preds = %122
  %135 = load ptr, ptr %17, align 8
  call void @g_free(ptr noundef %135)
  br label %136

136:                                              ; preds = %134, %122
  %137 = load i8, ptr %19, align 1, !range !8, !noundef !9
  %138 = trunc i8 %137 to i1
  br i1 %138, label %140, label %139

139:                                              ; preds = %136
  store i1 false, ptr %7, align 1
  store i32 1, ptr %20, align 4
  br label %142

140:                                              ; preds = %136
  br label %141

141:                                              ; preds = %140, %112
  store i1 true, ptr %7, align 1
  store i32 1, ptr %20, align 4
  br label %142

142:                                              ; preds = %141, %139, %108, %57, %36
  call void @llvm.lifetime.end.p0(i64 1, ptr %19) #13
  call void @llvm.lifetime.end.p0(i64 8, ptr %18) #13
  call void @llvm.lifetime.end.p0(i64 8, ptr %17) #13
  call void @llvm.lifetime.end.p0(i64 8, ptr %16) #13
  call void @llvm.lifetime.end.p0(i64 8, ptr %15) #13
  call void @llvm.lifetime.end.p0(i64 8, ptr %14) #13
  %143 = load i1, ptr %7, align 1
  ret i1 %143
}